target datalayout = "e-m:e-p270:32:32-p271:32:32-p272:64:64-i64:64-i128:128-f80:128-n8:16:32:64-S128"
target triple = "x86_64-pc-linux-gnu"

%struct.Abc_Ntk_t_ = type { i32, i32, ptr, ptr, ptr, ptr, ptr, ptr, ptr, ptr, ptr, ptr, ptr, [11 x i32], i32, i32, i32, i32, ptr, i32, ptr, ptr, i32, i32, i32, double, i32, %struct.Vec_Int_t_, ptr, ptr, ptr, ptr, ptr, float, i32, ptr, ptr, ptr, ptr, ptr, ptr, ptr, ptr, ptr, ptr, ptr, ptr, ptr, ptr, ptr, ptr, ptr, ptr, ptr, ptr, ptr, ptr }
%struct.Vec_Int_t_ = type { i32, i32, ptr }
%struct.Vec_Ptr_t_ = type { i32, i32, ptr }
%struct.Abc_Obj_t_ = type { ptr, ptr, i32, i32, %struct.Vec_Int_t_, %struct.Vec_Int_t_, %union.anon, %union.anon.0 }
%union.anon = type { ptr }
%union.anon.0 = type { ptr }

; Function Attrs: inlinehint nounwind uwtable
define internal ptr @Abc_NtkCreatePo(ptr noundef %0) #4 {
  %2 = alloca ptr, align 8
  store ptr %0, ptr %2, align 8, !tbaa !7
  %3 = load ptr, ptr %2, align 8, !tbaa !7
  %4 = call ptr @Abc_NtkCreateObj(ptr noundef %3, i32 noundef 3)
  ret ptr %4
}

; Function Attrs: inlinehint nounwind uwtable
define internal ptr @Abc_NtkObj(ptr noundef %0, i32 noundef %1) #4 {
  %3 = alloca ptr, align 8
  %4 = alloca i32, align 4
  store ptr %0, ptr %3, align 8, !tbaa !7
  store i32 %1, ptr %4, align 4, !tbaa !3
  %5 = load ptr, ptr %3, align 8, !tbaa !7
  %6 = getelementptr inbounds nuw %struct.Abc_Ntk_t_, ptr %5, i32 0, i32 5
  %7 = load ptr, ptr %6, align 8, !tbaa !27
  %8 = load i32, ptr %4, align 4, !tbaa !3
  %9 = call ptr @Vec_PtrEntry(ptr noundef %7, i32 noundef %8)
  ret ptr %9
}

; Function Attrs: inlinehint nounwind uwtable
define internal ptr @Abc_NtkCi(ptr noundef %0, i32 noundef %1) #4 {
  %3 = alloca ptr, align 8
  %4 = alloca i32, align 4
  store ptr %0, ptr %3, align 8, !tbaa !7
  store i32 %1, ptr %4, align 4, !tbaa !3
  %5 = load ptr, ptr %3, align 8, !tbaa !7
  %6 = getelementptr inbounds nuw %struct.Abc_Ntk_t_, ptr %5, i32 0, i32 8
  %7 = load ptr, ptr %6, align 8, !tbaa !31
  %8 = load i32, ptr %4, align 4, !tbaa !3
  %9 = call ptr @Vec_PtrEntry(ptr noundef %7, i32 noundef %8)
  ret ptr %9
}

; Function Attrs: inlinehint nounwind uwtable
define internal ptr @Abc_NtkCreateNode(ptr noundef %0) #4 {
  %2 = alloca ptr, align 8
  store ptr %0, ptr %2, align 8, !tbaa !7
  %3 = load ptr, ptr %2, align 8, !tbaa !7
  %4 = call ptr @Abc_NtkCreateObj(ptr noundef %3, i32 noundef 7)
  ret ptr %4
}

; Function Attrs: inlinehint nounwind uwtable
define internal i32 @Vec_PtrSize(ptr noundef %0) #4 {
  %2 = alloca ptr, align 8
  store ptr %0, ptr %2, align 8, !tbaa !42
  %3 = load ptr, ptr %2, align 8, !tbaa !42
  %4 = getelementptr inbounds nuw %struct.Vec_Ptr_t_, ptr %3, i32 0, i32 1
  %5 = load i32, ptr %4, align 4, !tbaa !43
  ret i32 %5
}

; Function Attrs: inlinehint nounwind uwtable
define internal i32 @Abc_NtkObjNumMax(ptr noundef %0) #4 {
  %2 = alloca ptr, align 8
  store ptr %0, ptr %2, align 8, !tbaa !7
  %3 = load ptr, ptr %2, align 8, !tbaa !7
  %4 = getelementptr inbounds nuw %struct.Abc_Ntk_t_, ptr %3, i32 0, i32 5
  %5 = load ptr, ptr %4, align 8, !tbaa !27
  %6 = call i32 @Vec_PtrSize(ptr noundef %5)
  ret i32 %6
}

; Function Attrs: inlinehint nounwind uwtable
define internal ptr @Abc_NtkCreatePi(ptr noundef %0) #4 {
  %2 = alloca ptr, align 8
  store ptr %0, ptr %2, align 8, !tbaa !7
  %3 = load ptr, ptr %2, align 8, !tbaa !7
  %4 = call ptr @Abc_NtkCreateObj(ptr noundef %3, i32 noundef 2)
  ret ptr %4
}

; Function Attrs: inlinehint nounwind uwtable
define internal ptr @Vec_PtrEntry(ptr noundef %0, i32 noundef %1) #4 {
  %3 = alloca ptr, align 8
  %4 = alloca i32, align 4
  store ptr %0, ptr %3, align 8, !tbaa !42
  store i32 %1, ptr %4, align 4, !tbaa !3
  %5 = load ptr, ptr %3, align 8, !tbaa !42
  %6 = getelementptr inbounds nuw %struct.Vec_Ptr_t_, ptr %5, i32 0, i32 2
  %7 = load ptr, ptr %6, align 8, !tbaa !46
  %8 = load i32, ptr %4, align 4, !tbaa !3
  %9 = sext i32 %8 to i64
  %10 = getelementptr inbounds ptr, ptr %7, i64 %9
  %11 = load ptr, ptr %10, align 8, !tbaa !47
  ret ptr %11
}

; Function Attrs: nounwind uwtable
define ptr @Abc_NtkCreateFromSops(ptr noundef %0, ptr noundef %1) #0 {
  %3 = alloca ptr, align 8
  %4 = alloca ptr, align 8
  %5 = alloca i32, align 4
  %6 = alloca i32, align 4
  %7 = alloca i32, align 4
  %8 = alloca ptr, align 8
  %9 = alloca ptr, align 8
  %10 = alloca ptr, align 8
  %11 = alloca ptr, align 8
  %12 = alloca ptr, align 8
  store ptr %0, ptr %3, align 8, !tbaa !86
  store ptr %1, ptr %4, align 8, !tbaa !42
  call void @llvm.lifetime.start.p0(i64 4, ptr %5) #11
  call void @llvm.lifetime.start.p0(i64 4, ptr %6) #11
  call void @llvm.lifetime.start.p0(i64 4, ptr %7) #11
  call void @llvm.lifetime.start.p0(i64 8, ptr %8) #11
  %13 = load ptr, ptr %4, align 8, !tbaa !42
  %14 = call ptr @Vec_PtrEntry(ptr noundef %13, i32 noundef 0)
  store ptr %14, ptr %8, align 8, !tbaa !86
  call void @llvm.lifetime.start.p0(i64 8, ptr %9) #11
  %15 = call ptr @Abc_NtkAlloc(i32 noundef 2, i32 noundef 1, i32 noundef 1)
  store ptr %15, ptr %9, align 8, !tbaa !7
  %16 = load ptr, ptr %3, align 8, !tbaa !86
  %17 = call ptr @Extra_UtilStrsav(ptr noundef %16)
  %18 = load ptr, ptr %9, align 8, !tbaa !7
  %19 = getelementptr inbounds nuw %struct.Abc_Ntk_t_, ptr %18, i32 0, i32 2
  store ptr %17, ptr %19, align 8, !tbaa !50
  store i32 0, ptr %6, align 4, !tbaa !3
  br label %20

20:                                               ; preds = %31, %2
  %21 = load ptr, ptr %8, align 8, !tbaa !86
  %22 = load i32, ptr %6, align 4, !tbaa !3
  %23 = sext i32 %22 to i64
  %24 = getelementptr inbounds i8, ptr %21, i64 %23
  %25 = load i8, ptr %24, align 1, !tbaa !52
  %26 = sext i8 %25 to i32
  %27 = icmp ne i32 %26, 32
  br i1 %27, label %28, label %34

28:                                               ; preds = %20
  %29 = load ptr, ptr %9, align 8, !tbaa !7
  %30 = call ptr @Abc_NtkCreatePi(ptr noundef %29)
  br label %31

31:                                               ; preds = %28
  %32 = load i32, ptr %6, align 4, !tbaa !3
  %33 = add nsw i32 %32, 1
  store i32 %33, ptr %6, align 4, !tbaa !3
  br label %20, !llvm.loop !237

34:                                               ; preds = %20
  %35 = load ptr, ptr %9, align 8, !tbaa !7
  %36 = call i32 @Abc_NtkObjNumMax(ptr noundef %35)
  store i32 %36, ptr %7, align 4, !tbaa !3
  store i32 0, ptr %5, align 4, !tbaa !3
  br label %37

37:                                               ; preds = %75, %34
  %38 = load i32, ptr %5, align 4, !tbaa !3
  %39 = load ptr, ptr %4, align 8, !tbaa !42
  %40 = call i32 @Vec_PtrSize(ptr noundef %39)
  %41 = icmp slt i32 %38, %40
  br i1 %41, label %42, label %46

42:                                               ; preds = %37
  %43 = load ptr, ptr %4, align 8, !tbaa !42
  %44 = load i32, ptr %5, align 4, !tbaa !3
  %45 = call ptr @Vec_PtrEntry(ptr noundef %43, i32 noundef %44)
  store ptr %45, ptr %8, align 8, !tbaa !86
  br label %46

46:                                               ; preds = %42, %37
  %47 = phi i1 [ false, %37 ], [ true, %42 ]
  br i1 %47, label %48, label %78

48:                                               ; preds = %46
  call void @llvm.lifetime.start.p0(i64 8, ptr %10) #11
  %49 = load ptr, ptr %9, align 8, !tbaa !7
  %50 = call ptr @Abc_NtkCreateNode(ptr noundef %49)
  store ptr %50, ptr %10, align 8, !tbaa !53
  %51 = load ptr, ptr %9, align 8, !tbaa !7
  %52 = getelementptr inbounds nuw %struct.Abc_Ntk_t_, ptr %51, i32 0, i32 30
  %53 = load ptr, ptr %52, align 8, !tbaa !38
  %54 = load ptr, ptr %8, align 8, !tbaa !86
  %55 = call ptr @Abc_SopRegister(ptr noundef %53, ptr noundef %54)
  %56 = load ptr, ptr %10, align 8, !tbaa !53
  %57 = getelementptr inbounds nuw %struct.Abc_Obj_t_, ptr %56, i32 0, i32 6
  store ptr %55, ptr %57, align 8, !tbaa !52
  store i32 0, ptr %6, align 4, !tbaa !3
  br label %58

58:                                               ; preds = %71, %48
  %59 = load ptr, ptr %8, align 8, !tbaa !86
  %60 = load i32, ptr %6, align 4, !tbaa !3
  %61 = sext i32 %60 to i64
  %62 = getelementptr inbounds i8, ptr %59, i64 %61
  %63 = load i8, ptr %62, align 1, !tbaa !52
  %64 = sext i8 %63 to i32
  %65 = icmp ne i32 %64, 32
  br i1 %65, label %66, label %74

66:                                               ; preds = %58
  %67 = load ptr, ptr %10, align 8, !tbaa !53
  %68 = load ptr, ptr %9, align 8, !tbaa !7
  %69 = load i32, ptr %6, align 4, !tbaa !3
  %70 = call ptr @Abc_NtkCi(ptr noundef %68, i32 noundef %69)
  call void @Abc_ObjAddFanin(ptr noundef %67, ptr noundef %70)
  br label %71

71:                                               ; preds = %66
  %72 = load i32, ptr %6, align 4, !tbaa !3
  %73 = add nsw i32 %72, 1
  store i32 %73, ptr %6, align 4, !tbaa !3
  br label %58, !llvm.loop !238

74:                                               ; preds = %58
  call void @llvm.lifetime.end.p0(i64 8, ptr %10) #11
  br label %75

75:                                               ; preds = %74
  %76 = load i32, ptr %5, align 4, !tbaa !3
  %77 = add nsw i32 %76, 1
  store i32 %77, ptr %5, align 4, !tbaa !3
  br label %37, !llvm.loop !239

78:                                               ; preds = %46
  store i32 0, ptr %5, align 4, !tbaa !3
  br label %79

79:                                               ; preds = %94, %78
  %80 = load i32, ptr %5, align 4, !tbaa !3
  %81 = load ptr, ptr %4, align 8, !tbaa !42
  %82 = call i32 @Vec_PtrSize(ptr noundef %81)
  %83 = icmp slt i32 %80, %82
  br i1 %83, label %84, label %97

84:                                               ; preds = %79
  call void @llvm.lifetime.start.p0(i64 8, ptr %11) #11
  %85 = load ptr, ptr %9, align 8, !tbaa !7
  %86 = load i32, ptr %7, align 4, !tbaa !3
  %87 = load i32, ptr %5, align 4, !tbaa !3
  %88 = add nsw i32 %86, %87
  %89 = call ptr @Abc_NtkObj(ptr noundef %85, i32 noundef %88)
  store ptr %89, ptr %11, align 8, !tbaa !53
  call void @llvm.lifetime.start.p0(i64 8, ptr %12) #11
  %90 = load ptr, ptr %9, align 8, !tbaa !7
  %91 = call ptr @Abc_NtkCreatePo(ptr noundef %90)
  store ptr %91, ptr %12, align 8, !tbaa !53
  %92 = load ptr, ptr %12, align 8, !tbaa !53
  %93 = load ptr, ptr %11, align 8, !tbaa !53
  call void @Abc_ObjAddFanin(ptr noundef %92, ptr noundef %93)
  call void @llvm.lifetime.end.p0(i64 8, ptr %12) #11
  call void @llvm.lifetime.end.p0(i64 8, ptr %11) #11
  br label %94

94:                                               ; preds = %84
  %95 = load i32, ptr %5, align 4, !tbaa !3
  %96 = add nsw i32 %95, 1
  store i32 %96, ptr %5, align 4, !tbaa !3
  br label %79, !llvm.loop !240

97:                                               ; preds = %79
  %98 = load ptr, ptr %9, align 8, !tbaa !7
  call void @Abc_NtkAddDummyPiNames(ptr noundef %98)
  %99 = load ptr, ptr %9, align 8, !tbaa !7
  call void @Abc_NtkAddDummyPoNames(ptr noundef %99)
  %100 = load ptr, ptr %9, align 8, !tbaa !7
  call void @llvm.lifetime.end.p0(i64 8, ptr %9) #11
  call void @llvm.lifetime.end.p0(i64 8, ptr %8) #11
  call void @llvm.lifetime.end.p0(i64 4, ptr %7) #11
  call void @llvm.lifetime.end.p0(i64 4, ptr %6) #11
  call void @llvm.lifetime.end.p0(i64 4, ptr %5) #11
  ret ptr %100
}