; Function Attrs: nounwind uwtable
define noundef ptr @Abc_NtkCreateFromSops(ptr noundef %0, ptr noundef readonly captures(none) %1) local_unnamed_addr #0 {
  %3 = getelementptr i8, ptr %1, i64 8
  %.val39 = load ptr, ptr %3, align 8, !tbaa !28
  %4 = load ptr, ptr %.val39, align 8, !tbaa !40
  %5 = tail call ptr @Abc_NtkAlloc(i32 noundef 2, i32 noundef 1, i32 noundef 1)
  %6 = tail call ptr @Extra_UtilStrsav(ptr noundef %0) #20
  %7 = getelementptr inbounds nuw i8, ptr %5, i64 8
  store ptr %6, ptr %7, align 8, !tbaa !47
  %8 = load i8, ptr %4, align 1, !tbaa !49
  %.not43 = icmp eq i8 %8, 32
  br i1 %.not43, label %._crit_edge, label %.lr.ph

.lr.ph:                                           ; preds = %2, %.lr.ph
  %indvars.iv = phi i64 [ %indvars.iv.next, %.lr.ph ], [ 0, %2 ]
  %9 = tail call ptr @Abc_NtkCreateObj(ptr noundef %5, i32 noundef 2) #20
  %indvars.iv.next = add nuw nsw i64 %indvars.iv, 1
  %10 = getelementptr inbounds nuw i8, ptr %4, i64 %indvars.iv.next
  %11 = load i8, ptr %10, align 1, !tbaa !49
  %.not = icmp eq i8 %11, 32
  br i1 %.not, label %._crit_edge, label %.lr.ph, !llvm.loop !225

._crit_edge:                                      ; preds = %.lr.ph, %2
  %12 = getelementptr i8, ptr %5, i64 32
  %.val42 = load ptr, ptr %12, align 8, !tbaa !29
  %13 = getelementptr i8, ptr %.val42, i64 4
  %.val42.val = load i32, ptr %13, align 4, !tbaa !25
  %14 = getelementptr i8, ptr %1, i64 4
  %.val3750 = load i32, ptr %14, align 4, !tbaa !25
  %15 = icmp sgt i32 %.val3750, 0
  br i1 %15, label %.lr.ph53, label %.critedge._crit_edge

.lr.ph53:                                         ; preds = %._crit_edge
  %16 = getelementptr inbounds nuw i8, ptr %5, i64 256
  %17 = getelementptr i8, ptr %5, i64 56
  br label %20

.critedge.preheader:                              ; preds = %._crit_edge49
  %18 = icmp sgt i32 %.val37, 0
  br i1 %18, label %.critedge.preheader57, label %.critedge._crit_edge

.critedge.preheader57:                            ; preds = %.critedge.preheader
  %19 = sext i32 %.val42.val to i64
  br label %.critedge

20:                                               ; preds = %.lr.ph53, %._crit_edge49
  %indvars.iv62 = phi i64 [ 0, %.lr.ph53 ], [ %indvars.iv.next63, %._crit_edge49 ]
  %.val38 = load ptr, ptr %3, align 8, !tbaa !28
  %21 = getelementptr inbounds nuw ptr, ptr %.val38, i64 %indvars.iv62
  %22 = load ptr, ptr %21, align 8, !tbaa !40
  %23 = tail call ptr @Abc_NtkCreateObj(ptr noundef nonnull %5, i32 noundef 7) #20
  %24 = load ptr, ptr %16, align 8, !tbaa !41
  %25 = tail call ptr @Abc_SopRegister(ptr noundef %24, ptr noundef %22) #20
  %26 = getelementptr inbounds nuw i8, ptr %23, i64 56
  store ptr %25, ptr %26, align 8, !tbaa !49
  %27 = load i8, ptr %22, align 1, !tbaa !49
  %.not3645 = icmp eq i8 %27, 32
  br i1 %.not3645, label %._crit_edge49, label %.lr.ph48

.lr.ph48:                                         ; preds = %20, %.lr.ph48
  %indvars.iv59 = phi i64 [ %indvars.iv.next60, %.lr.ph48 ], [ 0, %20 ]
  %.val40 = load ptr, ptr %17, align 8, !tbaa !33
  %28 = getelementptr i8, ptr %.val40, i64 8
  %.val40.val = load ptr, ptr %28, align 8, !tbaa !28
  %29 = getelementptr inbounds nuw ptr, ptr %.val40.val, i64 %indvars.iv59
  %30 = load ptr, ptr %29, align 8, !tbaa !40
  tail call void @Abc_ObjAddFanin(ptr noundef %23, ptr noundef %30) #20
  %indvars.iv.next60 = add nuw nsw i64 %indvars.iv59, 1
  %31 = getelementptr inbounds nuw i8, ptr %22, i64 %indvars.iv.next60
  %32 = load i8, ptr %31, align 1, !tbaa !49
  %.not36 = icmp eq i8 %32, 32
  br i1 %.not36, label %._crit_edge49, label %.lr.ph48, !llvm.loop !226

._crit_edge49:                                    ; preds = %.lr.ph48, %20
  %indvars.iv.next63 = add nuw nsw i64 %indvars.iv62, 1
  %.val37 = load i32, ptr %14, align 4, !tbaa !25
  %33 = sext i32 %.val37 to i64
  %34 = icmp slt i64 %indvars.iv.next63, %33
  br i1 %34, label %20, label %.critedge.preheader, !llvm.loop !227

.critedge:                                        ; preds = %.critedge.preheader57, %.critedge
  %indvars.iv65 = phi i64 [ 0, %.critedge.preheader57 ], [ %indvars.iv.next66, %.critedge ]
  %.val41 = load ptr, ptr %12, align 8, !tbaa !29
  %35 = getelementptr i8, ptr %.val41, i64 8
  %.val41.val = load ptr, ptr %35, align 8, !tbaa !28
  %36 = getelementptr ptr, ptr %.val41.val, i64 %indvars.iv65
  %37 = getelementptr ptr, ptr %36, i64 %19
  %38 = load ptr, ptr %37, align 8, !tbaa !40
  %39 = tail call ptr @Abc_NtkCreateObj(ptr noundef nonnull %5, i32 noundef 3) #20
  tail call void @Abc_ObjAddFanin(ptr noundef %39, ptr noundef %38) #20
  %indvars.iv.next66 = add nuw nsw i64 %indvars.iv65, 1
  %.val = load i32, ptr %14, align 4, !tbaa !25
  %40 = sext i32 %.val to i64
  %41 = icmp slt i64 %indvars.iv.next66, %40
  br i1 %41, label %.critedge, label %.critedge._crit_edge, !llvm.loop !228

.critedge._crit_edge:                             ; preds = %.critedge, %._crit_edge, %.critedge.preheader
  tail call void @Abc_NtkAddDummyPiNames(ptr noundef nonnull %5) #20
  tail call void @Abc_NtkAddDummyPoNames(ptr noundef nonnull %5) #20
  ret ptr %5
}